; Function Attrs: mustprogress uwtable
define hidden noundef zeroext i1 @_ZNK21pattern_inference_cfg12is_forbiddenEP3app(ptr noundef nonnull align 8 dereferenceable(504) %this, ptr nocapture noundef readonly %n) local_unnamed_addr #3 align 2 {
entry:
  %m_decl.i = getelementptr inbounds i8, ptr %n, i64 16
  %0 = load ptr, ptr %m_decl.i, align 8
  %m_kind.i.i.i = getelementptr inbounds i8, ptr %n, i64 4
  %bf.load.i.i.i = load i32, ptr %m_kind.i.i.i, align 4
  %bf.clear.i.i.i = and i32 %bf.load.i.i.i, 65535
  %cmp.i.i = icmp eq i32 %bf.clear.i.i.i, 0
  br i1 %cmp.i.i, label %_Z9is_groundPK4expr.exit, label %if.end

_Z9is_groundPK4expr.exit:                         ; preds = %entry
  %m_num_args.i.i.i = getelementptr inbounds i8, ptr %n, i64 24
  %1 = load i32, ptr %m_num_args.i.i.i, align 8
  %cmp.i.i.i = icmp eq i32 %1, 0
  %m_args.i.i.i = getelementptr inbounds i8, ptr %n, i64 32
  %idx.ext.i.i.i = zext i32 %1 to i64
  %add.ptr.i.i.i = getelementptr inbounds ptr, ptr %m_args.i.i.i, i64 %idx.ext.i.i.i
  %cond.i.i.i = select i1 %cmp.i.i.i, ptr @_ZN3app16g_constant_flagsE, ptr %add.ptr.i.i.i
  %bf.load.i.i = load i32, ptr %cond.i.i.i, align 4
  %2 = and i32 %bf.load.i.i, 65536
  %tobool.i.i.not = icmp eq i32 %2, 0
  br i1 %tobool.i.i.not, label %if.end, label %return

if.end:                                           ; preds = %entry, %_Z9is_groundPK4expr.exit
  %m_params = getelementptr inbounds i8, ptr %this, i64 8
  %3 = load ptr, ptr %m_params, align 8
  %m_pi_avoid_skolems = getelementptr inbounds i8, ptr %3, i64 36
  %4 = load i8, ptr %m_pi_avoid_skolems, align 4
  %5 = and i8 %4, 1
  %tobool.not = icmp eq i8 %5, 0
  br i1 %tobool.not, label %if.end5, label %land.lhs.true

land.lhs.true:                                    ; preds = %if.end
  %m_info.i.i = getelementptr inbounds i8, ptr %0, i64 24
  %6 = load ptr, ptr %m_info.i.i, align 8
  %cmp.not.i = icmp eq ptr %6, null
  br i1 %cmp.not.i, label %if.end5, label %_ZNK9func_decl9is_skolemEv.exit

_ZNK9func_decl9is_skolemEv.exit:                  ; preds = %land.lhs.true
  %m_skolem.i.i = getelementptr inbounds i8, ptr %6, i64 17
  %bf.load.i.i4 = load i16, ptr %m_skolem.i.i, align 1
  %7 = and i16 %bf.load.i.i4, 256
  %bf.cast.i.i.not = icmp eq i16 %7, 0
  br i1 %bf.cast.i.i.not, label %if.end5, label %return

if.end5:                                          ; preds = %land.lhs.true, %_ZNK9func_decl9is_skolemEv.exit, %if.end
  %call6 = tail call noundef zeroext i1 @_ZNK21pattern_inference_cfg12is_forbiddenEPK9func_decl(ptr noundef nonnull align 8 dereferenceable(504) %this, ptr noundef %0)
  br label %return

return:                                           ; preds = %if.end5, %_ZNK9func_decl9is_skolemEv.exit, %_Z9is_groundPK4expr.exit
  %retval.0 = phi i1 [ false, %_Z9is_groundPK4expr.exit ], [ true, %_ZNK9func_decl9is_skolemEv.exit ], [ %call6, %if.end5 ]
  ret i1 %retval.0
}